target datalayout = "e-m:e-p270:32:32-p271:32:32-p272:64:64-i64:64-i128:128-f80:128-n8:16:32:64-S128"
target triple = "x86_64-pc-linux-gnu"

%struct.strbuf = type { i64, i64, ptr }
%struct.strvec = type { ptr, i64, i64 }
%struct.string_list = type { ptr, i64, i64, i8, ptr }
%struct.string_list_item = type { ptr, ptr }
%struct.remote = type { %struct.hashmap_entry, ptr, i32, i32, ptr, %struct.strvec, %struct.strvec, %struct.refspec, %struct.refspec, i32, i32, i32, i32, i32, ptr, ptr, ptr, ptr, %struct.string_list, i32, ptr }
%struct.hashmap_entry = type { ptr, i32 }
%struct.refspec = type { ptr, i32, i32, i32 }

@the_repository = external global ptr, align 8
@__const.get_one_entry.remote_info_buf = private unnamed_addr constant %struct.strbuf { i64 0, i64 0, ptr @strbuf_slopbuf }, align 8
@__const.get_one_entry.promisor_config = private unnamed_addr constant %struct.strbuf { i64 0, i64 0, ptr @strbuf_slopbuf }, align 8
@.str.215 = private unnamed_addr constant [29 x i8] c"remote.%s.partialclonefilter\00", align 1
@.str.216 = private unnamed_addr constant [11 x i8] c"%s (fetch)\00", align 1
@.str.217 = private unnamed_addr constant [6 x i8] c" [%s]\00", align 1
@.str.218 = private unnamed_addr constant [10 x i8] c"%s (push)\00", align 1

; Function Attrs: inlinehint nounwind uwtable
define internal i32 @git_config_get_string_tmp(ptr noundef %0, ptr noundef %1) #4 {
  %3 = alloca ptr, align 8
  %4 = alloca ptr, align 8
  store ptr %0, ptr %3, align 8, !tbaa !11
  store ptr %1, ptr %4, align 8, !tbaa !8
  %5 = load ptr, ptr @the_repository, align 8, !tbaa !13
  %6 = load ptr, ptr %3, align 8, !tbaa !11
  %7 = load ptr, ptr %4, align 8, !tbaa !8
  %8 = call i32 @repo_config_get_string_tmp(ptr noundef %5, ptr noundef %6, ptr noundef %7)
  ret i32 %8
}

; Function Attrs: nounwind uwtable
define internal i32 @get_one_entry(ptr noundef %0, ptr noundef %1) #0 {
  %3 = alloca ptr, align 8
  %4 = alloca ptr, align 8
  %5 = alloca ptr, align 8
  %6 = alloca %struct.strbuf, align 8
  %7 = alloca ptr, align 8
  %8 = alloca i32, align 4
  %9 = alloca %struct.strbuf, align 8
  %10 = alloca ptr, align 8
  store ptr %0, ptr %3, align 8, !tbaa !33
  store ptr %1, ptr %4, align 8, !tbaa !15
  call void @llvm.lifetime.start.p0(i64 8, ptr %5) #11
  %11 = load ptr, ptr %4, align 8, !tbaa !15
  store ptr %11, ptr %5, align 8, !tbaa !206
  call void @llvm.lifetime.start.p0(i64 24, ptr %6) #11
  call void @llvm.memcpy.p0.p0.i64(ptr align 8 %6, ptr align 8 @__const.get_one_entry.remote_info_buf, i64 24, i1 false)
  call void @llvm.lifetime.start.p0(i64 8, ptr %7) #11
  call void @llvm.lifetime.start.p0(i64 4, ptr %8) #11
  %12 = load ptr, ptr %3, align 8, !tbaa !33
  %13 = getelementptr inbounds nuw %struct.remote, ptr %12, i32 0, i32 5
  %14 = getelementptr inbounds nuw %struct.strvec, ptr %13, i32 0, i32 1
  %15 = load i64, ptr %14, align 8, !tbaa !136
  %16 = icmp ugt i64 %15, 0
  br i1 %16, label %17, label %41

17:                                               ; preds = %2
  call void @llvm.lifetime.start.p0(i64 24, ptr %9) #11
  call void @llvm.memcpy.p0.p0.i64(ptr align 8 %9, ptr align 8 @__const.get_one_entry.promisor_config, i64 24, i1 false)
  call void @llvm.lifetime.start.p0(i64 8, ptr %10) #11
  store ptr null, ptr %10, align 8, !tbaa !11
  %18 = load ptr, ptr %3, align 8, !tbaa !33
  %19 = getelementptr inbounds nuw %struct.remote, ptr %18, i32 0, i32 1
  %20 = load ptr, ptr %19, align 8, !tbaa !81
  call void (ptr, ptr, ...) @strbuf_addf(ptr noundef %9, ptr noundef @.str.215, ptr noundef %20)
  %21 = load ptr, ptr %3, align 8, !tbaa !33
  %22 = getelementptr inbounds nuw %struct.remote, ptr %21, i32 0, i32 5
  %23 = getelementptr inbounds nuw %struct.strvec, ptr %22, i32 0, i32 0
  %24 = load ptr, ptr %23, align 8, !tbaa !108
  %25 = getelementptr inbounds ptr, ptr %24, i64 0
  %26 = load ptr, ptr %25, align 8, !tbaa !11
  call void (ptr, ptr, ...) @strbuf_addf(ptr noundef %6, ptr noundef @.str.216, ptr noundef %26)
  %27 = getelementptr inbounds nuw %struct.strbuf, ptr %9, i32 0, i32 2
  %28 = load ptr, ptr %27, align 8, !tbaa !35
  %29 = call i32 @git_config_get_string_tmp(ptr noundef %28, ptr noundef %10)
  %30 = icmp ne i32 %29, 0
  br i1 %30, label %33, label %31

31:                                               ; preds = %17
  %32 = load ptr, ptr %10, align 8, !tbaa !11
  call void (ptr, ptr, ...) @strbuf_addf(ptr noundef %6, ptr noundef @.str.217, ptr noundef %32)
  br label %33

33:                                               ; preds = %31, %17
  call void @strbuf_release(ptr noundef %9)
  %34 = call ptr @strbuf_detach(ptr noundef %6, ptr noundef null)
  %35 = load ptr, ptr %5, align 8, !tbaa !206
  %36 = load ptr, ptr %3, align 8, !tbaa !33
  %37 = getelementptr inbounds nuw %struct.remote, ptr %36, i32 0, i32 1
  %38 = load ptr, ptr %37, align 8, !tbaa !81
  %39 = call ptr @string_list_append(ptr noundef %35, ptr noundef %38)
  %40 = getelementptr inbounds nuw %struct.string_list_item, ptr %39, i32 0, i32 1
  store ptr %34, ptr %40, align 8, !tbaa !63
  call void @llvm.lifetime.end.p0(i64 8, ptr %10) #11
  call void @llvm.lifetime.end.p0(i64 24, ptr %9) #11
  br label %48

41:                                               ; preds = %2
  %42 = load ptr, ptr %5, align 8, !tbaa !206
  %43 = load ptr, ptr %3, align 8, !tbaa !33
  %44 = getelementptr inbounds nuw %struct.remote, ptr %43, i32 0, i32 1
  %45 = load ptr, ptr %44, align 8, !tbaa !81
  %46 = call ptr @string_list_append(ptr noundef %42, ptr noundef %45)
  %47 = getelementptr inbounds nuw %struct.string_list_item, ptr %46, i32 0, i32 1
  store ptr null, ptr %47, align 8, !tbaa !63
  br label %48

48:                                               ; preds = %41, %33
  %49 = load ptr, ptr %3, align 8, !tbaa !33
  %50 = call ptr @push_url_of_remote(ptr noundef %49)
  store ptr %50, ptr %7, align 8, !tbaa !100
  store i32 0, ptr %8, align 4, !tbaa !4
  br label %51

51:                                               ; preds = %73, %48
  %52 = load i32, ptr %8, align 4, !tbaa !4
  %53 = sext i32 %52 to i64
  %54 = load ptr, ptr %7, align 8, !tbaa !100
  %55 = getelementptr inbounds nuw %struct.strvec, ptr %54, i32 0, i32 1
  %56 = load i64, ptr %55, align 8, !tbaa !102
  %57 = icmp ult i64 %53, %56
  br i1 %57, label %58, label %76

58:                                               ; preds = %51
  %59 = load ptr, ptr %7, align 8, !tbaa !100
  %60 = getelementptr inbounds nuw %struct.strvec, ptr %59, i32 0, i32 0
  %61 = load ptr, ptr %60, align 8, !tbaa !103
  %62 = load i32, ptr %8, align 4, !tbaa !4
  %63 = sext i32 %62 to i64
  %64 = getelementptr inbounds ptr, ptr %61, i64 %63
  %65 = load ptr, ptr %64, align 8, !tbaa !11
  call void (ptr, ptr, ...) @strbuf_addf(ptr noundef %6, ptr noundef @.str.218, ptr noundef %65)
  %66 = call ptr @strbuf_detach(ptr noundef %6, ptr noundef null)
  %67 = load ptr, ptr %5, align 8, !tbaa !206
  %68 = load ptr, ptr %3, align 8, !tbaa !33
  %69 = getelementptr inbounds nuw %struct.remote, ptr %68, i32 0, i32 1
  %70 = load ptr, ptr %69, align 8, !tbaa !81
  %71 = call ptr @string_list_append(ptr noundef %67, ptr noundef %70)
  %72 = getelementptr inbounds nuw %struct.string_list_item, ptr %71, i32 0, i32 1
  store ptr %66, ptr %72, align 8, !tbaa !63
  br label %73

73:                                               ; preds = %58
  %74 = load i32, ptr %8, align 4, !tbaa !4
  %75 = add nsw i32 %74, 1
  store i32 %75, ptr %8, align 4, !tbaa !4
  br label %51, !llvm.loop !212

76:                                               ; preds = %51
  call void @llvm.lifetime.end.p0(i64 4, ptr %8) #11
  call void @llvm.lifetime.end.p0(i64 8, ptr %7) #11
  call void @llvm.lifetime.end.p0(i64 24, ptr %6) #11
  call void @llvm.lifetime.end.p0(i64 8, ptr %5) #11
  ret i32 0
}