; Function Attrs: nounwind uwtable
define internal noundef i32 @get_one_entry(ptr noundef %0, ptr noundef %1) #0 {
  %3 = alloca %struct.strbuf, align 8
  %4 = alloca %struct.strbuf, align 8
  %5 = alloca ptr, align 8
  call void @llvm.lifetime.start.p0(i64 24, ptr nonnull %3) #19
  call void @llvm.memcpy.p0.p0.i64(ptr noundef nonnull align 8 dereferenceable(24) %3, ptr noundef nonnull align 8 dereferenceable(24) @__const.get_one_entry.promisor_config, i64 24, i1 false)
  %6 = getelementptr inbounds nuw i8, ptr %0, i64 48
  %7 = load i64, ptr %6, align 8, !tbaa !55
  %.not = icmp eq i64 %7, 0
  br i1 %.not, label %25, label %8

8:                                                ; preds = %2
  %9 = getelementptr inbounds nuw i8, ptr %0, i64 40
  call void @llvm.lifetime.start.p0(i64 24, ptr nonnull %4) #19
  call void @llvm.memcpy.p0.p0.i64(ptr noundef nonnull align 8 dereferenceable(24) %4, ptr noundef nonnull align 8 dereferenceable(24) @__const.get_one_entry.promisor_config, i64 24, i1 false)
  call void @llvm.lifetime.start.p0(i64 8, ptr nonnull %5) #19
  store ptr null, ptr %5, align 8, !tbaa !20
  %10 = getelementptr inbounds nuw i8, ptr %0, i64 16
  %11 = load ptr, ptr %10, align 8, !tbaa !54
  call void (ptr, ptr, ...) @strbuf_addf(ptr noundef nonnull %4, ptr noundef nonnull @.str.215, ptr noundef %11) #19
  %12 = load ptr, ptr %9, align 8, !tbaa !56
  %13 = load ptr, ptr %12, align 8, !tbaa !20
  call void (ptr, ptr, ...) @strbuf_addf(ptr noundef nonnull %3, ptr noundef nonnull @.str.216, ptr noundef %13) #19
  %14 = getelementptr inbounds nuw i8, ptr %4, i64 16
  %15 = load ptr, ptr %14, align 8, !tbaa !24
  %16 = load ptr, ptr @the_repository, align 8, !tbaa !26
  %17 = call i32 @repo_config_get_string_tmp(ptr noundef %16, ptr noundef %15, ptr noundef nonnull %5) #19
  %.not16 = icmp eq i32 %17, 0
  br i1 %.not16, label %18, label %20

18:                                               ; preds = %8
  %19 = load ptr, ptr %5, align 8, !tbaa !20
  call void (ptr, ptr, ...) @strbuf_addf(ptr noundef nonnull %3, ptr noundef nonnull @.str.217, ptr noundef %19) #19
  br label %20

20:                                               ; preds = %18, %8
  call void @strbuf_release(ptr noundef nonnull %4) #19
  %21 = call ptr @strbuf_detach(ptr noundef nonnull %3, ptr noundef null) #19
  %22 = load ptr, ptr %10, align 8, !tbaa !54
  %23 = call ptr @string_list_append(ptr noundef %1, ptr noundef %22) #19
  %24 = getelementptr inbounds nuw i8, ptr %23, i64 8
  store ptr %21, ptr %24, align 8, !tbaa !67
  call void @llvm.lifetime.end.p0(i64 8, ptr nonnull %5) #19
  call void @llvm.lifetime.end.p0(i64 24, ptr nonnull %4) #19
  br label %30

25:                                               ; preds = %2
  %26 = getelementptr inbounds nuw i8, ptr %0, i64 16
  %27 = load ptr, ptr %26, align 8, !tbaa !54
  %28 = tail call ptr @string_list_append(ptr noundef %1, ptr noundef %27) #19
  %29 = getelementptr inbounds nuw i8, ptr %28, i64 8
  store ptr null, ptr %29, align 8, !tbaa !67
  br label %30

30:                                               ; preds = %25, %20
  %31 = call ptr @push_url_of_remote(ptr noundef nonnull %0) #19
  %32 = getelementptr inbounds nuw i8, ptr %31, i64 8
  %33 = load i64, ptr %32, align 8, !tbaa !102
  %.not18 = icmp eq i64 %33, 0
  br i1 %.not18, label %._crit_edge, label %.lr.ph

.lr.ph:                                           ; preds = %30
  %34 = getelementptr inbounds nuw i8, ptr %0, i64 16
  br label %35

35:                                               ; preds = %.lr.ph, %35
  %indvars.iv = phi i64 [ 0, %.lr.ph ], [ %indvars.iv.next, %35 ]
  %36 = load ptr, ptr %31, align 8, !tbaa !103
  %37 = getelementptr inbounds nuw ptr, ptr %36, i64 %indvars.iv
  %38 = load ptr, ptr %37, align 8, !tbaa !20
  call void (ptr, ptr, ...) @strbuf_addf(ptr noundef nonnull %3, ptr noundef nonnull @.str.218, ptr noundef %38) #19
  %39 = call ptr @strbuf_detach(ptr noundef nonnull %3, ptr noundef null) #19
  %40 = load ptr, ptr %34, align 8, !tbaa !54
  %41 = call ptr @string_list_append(ptr noundef %1, ptr noundef %40) #19
  %42 = getelementptr inbounds nuw i8, ptr %41, i64 8
  store ptr %39, ptr %42, align 8, !tbaa !67
  %indvars.iv.next = add nuw nsw i64 %indvars.iv, 1
  %43 = load i64, ptr %32, align 8, !tbaa !102
  %44 = icmp ugt i64 %43, %indvars.iv.next
  br i1 %44, label %35, label %._crit_edge, !llvm.loop !166

._crit_edge:                                      ; preds = %35, %30
  call void @llvm.lifetime.end.p0(i64 24, ptr nonnull %3) #19
  ret i32 0
}